; Function Attrs: mustprogress uwtable
define void @_ZNK8QuantLib14NormalCLVModel1gEv(ptr dead_on_unwind noalias writable sret(%"class.std::function") align 8 %agg.result, ptr noundef nonnull align 8 dereferenceable(168) %this) local_unnamed_addr #9 align 2 personality ptr @__gxx_personality_v0 {
entry:
  %vtable = load ptr, ptr %this, align 8, !tbaa !33
  %vfn = getelementptr inbounds i8, ptr %vtable, i64 24
  %0 = load ptr, ptr %vfn, align 8
  tail call void %0(ptr noundef nonnull align 8 dereferenceable(12) %this)
  %_M_manager.i.i = getelementptr inbounds nuw i8, ptr %agg.result, i64 16
  %_M_invoker.i = getelementptr inbounds nuw i8, ptr %agg.result, i64 24
  %_M_manager.i.i.i = getelementptr inbounds nuw i8, ptr %this, i64 152
  tail call void @llvm.memset.p0.i64(ptr noundef nonnull align 8 dereferenceable(32) %agg.result, i8 0, i64 32, i1 false)
  %1 = load ptr, ptr %_M_manager.i.i.i, align 8, !tbaa !91
  %tobool.not.i.i.not.i = icmp eq ptr %1, null
  br i1 %tobool.not.i.i.not.i, label %_ZNSt8functionIFdddEEC2ERKS1_.exit, label %if.then.i

if.then.i:                                        ; preds = %entry
  %g_ = getelementptr inbounds nuw i8, ptr %this, i64 136
  %call3.i = invoke noundef zeroext i1 %1(ptr noundef nonnull align 8 dereferenceable(16) %agg.result, ptr noundef nonnull align 8 dereferenceable(16) %g_, i32 noundef 2)
          to label %invoke.cont.i unwind label %lpad.i

invoke.cont.i:                                    ; preds = %if.then.i
  %_M_invoker4.i = getelementptr inbounds nuw i8, ptr %this, i64 160
  %2 = load ptr, ptr %_M_invoker4.i, align 8, !tbaa !124
  store ptr %2, ptr %_M_invoker.i, align 8, !tbaa !124
  %3 = load ptr, ptr %_M_manager.i.i.i, align 8, !tbaa !91
  store ptr %3, ptr %_M_manager.i.i, align 8, !tbaa !91
  br label %_ZNSt8functionIFdddEEC2ERKS1_.exit

lpad.i:                                           ; preds = %if.then.i
  %4 = landingpad { ptr, i32 }
          cleanup
  %5 = load ptr, ptr %_M_manager.i.i, align 8, !tbaa !91
  %tobool.not.i.i = icmp eq ptr %5, null
  br i1 %tobool.not.i.i, label %_ZNSt14_Function_baseD2Ev.exit.i, label %if.then.i.i

if.then.i.i:                                      ; preds = %lpad.i
  %call.i.i = invoke noundef zeroext i1 %5(ptr noundef nonnull align 8 dereferenceable(16) %agg.result, ptr noundef nonnull align 8 dereferenceable(16) %agg.result, i32 noundef 3)
          to label %_ZNSt14_Function_baseD2Ev.exit.i unwind label %terminate.lpad.i.i

terminate.lpad.i.i:                               ; preds = %if.then.i.i
  %6 = landingpad { ptr, i32 }
          catch ptr null
  %7 = extractvalue { ptr, i32 } %6, 0
  tail call void @__clang_call_terminate(ptr %7) #29
  unreachable

_ZNSt14_Function_baseD2Ev.exit.i:                 ; preds = %if.then.i.i, %lpad.i
  resume { ptr, i32 } %4

_ZNSt8functionIFdddEEC2ERKS1_.exit:               ; preds = %entry, %invoke.cont.i
  ret void
}